; Function Attrs: mustprogress uwtable
define noundef nonnull align 8 dereferenceable(56) ptr @_ZN6google8protobuf8internal10LogMessagelsEc(ptr noundef nonnull returned align 8 dereferenceable(56) %0, i8 noundef signext %1) local_unnamed_addr #3 align 2 {
  %3 = alloca [128 x i8], align 16
  store i8 %1, ptr %3, align 16
  %nul = getelementptr inbounds i8, ptr %3, i64 1
  store i8 0, ptr %nul, align 1
  %4 = getelementptr inbounds i8, ptr %3, i64 127
  store i8 0, ptr %4, align 1
  %5 = getelementptr inbounds i8, ptr %0, i64 24
  %6 = call noundef nonnull align 8 dereferenceable(32) ptr @_ZNSt7__cxx1112basic_stringIcSt11char_traitsIcESaIcEEpLEPKc(ptr noundef nonnull align 8 dereferenceable(32) %5, ptr noundef nonnull %3)
  ret ptr %0
}